target datalayout = "e-m:e-p270:32:32-p271:32:32-p272:64:64-i64:64-i128:128-f80:128-n8:16:32:64-S128"
target triple = "x86_64-pc-linux-gnu"

%struct.obj_order = type { ptr, i32, i32 }

; Function Attrs: nounwind uwtable
define internal i32 @compare_objs_order(ptr noundef %0, ptr noundef %1) #0 {
  %3 = alloca i32, align 4
  %4 = alloca ptr, align 8
  %5 = alloca ptr, align 8
  %6 = alloca ptr, align 8
  %7 = alloca ptr, align 8
  %8 = alloca i32, align 4
  store ptr %0, ptr %4, align 8, !tbaa !9
  store ptr %1, ptr %5, align 8, !tbaa !9
  call void @llvm.lifetime.start.p0(i64 8, ptr %6) #8
  call void @llvm.lifetime.start.p0(i64 8, ptr %7) #8
  %9 = load ptr, ptr %4, align 8, !tbaa !9
  store ptr %9, ptr %6, align 8, !tbaa !10
  %10 = load ptr, ptr %5, align 8, !tbaa !9
  store ptr %10, ptr %7, align 8, !tbaa !10
  %11 = load ptr, ptr %6, align 8, !tbaa !10
  %12 = getelementptr inbounds nuw %struct.obj_order, ptr %11, i32 0, i32 2
  %13 = load i32, ptr %12, align 4, !tbaa !17
  %14 = load ptr, ptr %7, align 8, !tbaa !10
  %15 = getelementptr inbounds nuw %struct.obj_order, ptr %14, i32 0, i32 2
  %16 = load i32, ptr %15, align 4, !tbaa !17
  %17 = icmp ne i32 %13, %16
  br i1 %17, label %18, label %26

18:                                               ; preds = %2
  %19 = load ptr, ptr %6, align 8, !tbaa !10
  %20 = getelementptr inbounds nuw %struct.obj_order, ptr %19, i32 0, i32 2
  %21 = load i32, ptr %20, align 4, !tbaa !17
  %22 = load ptr, ptr %7, align 8, !tbaa !10
  %23 = getelementptr inbounds nuw %struct.obj_order, ptr %22, i32 0, i32 2
  %24 = load i32, ptr %23, align 4, !tbaa !17
  %25 = sub nsw i32 %21, %24
  store i32 %25, ptr %3, align 4
  store i32 1, ptr %8, align 4
  br label %34

26:                                               ; preds = %2
  %27 = load ptr, ptr %6, align 8, !tbaa !10
  %28 = getelementptr inbounds nuw %struct.obj_order, ptr %27, i32 0, i32 1
  %29 = load i32, ptr %28, align 8, !tbaa !14
  %30 = load ptr, ptr %7, align 8, !tbaa !10
  %31 = getelementptr inbounds nuw %struct.obj_order, ptr %30, i32 0, i32 1
  %32 = load i32, ptr %31, align 8, !tbaa !14
  %33 = sub nsw i32 %29, %32
  store i32 %33, ptr %3, align 4
  store i32 1, ptr %8, align 4
  br label %34

34:                                               ; preds = %26, %18
  call void @llvm.lifetime.end.p0(i64 8, ptr %7) #8
  call void @llvm.lifetime.end.p0(i64 8, ptr %6) #8
  %35 = load i32, ptr %3, align 4
  ret i32 %35
}